(lp0
(Vhttps://www.livemint.com/Money/1vHUpOicn5Kr0RY1OalfPP/Ajay-Tyagi-senior-IAS-officer-appointed-Sebi-chairman.html
p1
S'Government appoints Ajay Tyagi as new <em>Sebi</em> chief'
p2
V10-Feb-2017
p3
tp4
a(Vhttps://economictimes.indiatimes.com/news/economy/policy/the-six-things-that-widened-the-rift-between-rbi-and-government/articleshow/66410997.cms
p5
S'The six things that widened the rift between <em>RBI</em> and government'
p6
V28-Oct-2018
p7
tp8
a(Vhttps://www.business-standard.com/article/finance/government-vs-rbi-all-you-need-to-know-about-section-7-of-the-rbi-act-118103100546_1.html
p9
S'Government vs <em>RBI</em>: All you need to know about Section 7 of the <em>RBI</em> Act'
p10
V31-Oct-2018
p11
tp12
a(Vhttps://www.moneycontrol.com/news/india/govt-vs-rbi-highlights-rbi-govt-to-hold-consultations-frequently-says-finance-ministry-3108611.html
p13
S'Govt vs <em>RBI</em> highlights: <em>RBI</em>, govt to hold consultations frequently, says ...'
p14
V30-Oct-2018
p15
tp16
a(Vhttps://indianexpress.com/article/business/banking-and-finance/rbi-centre-turf-war-tussle-not-new-viral-acharya-just-flagging-new-issues-5424409/
p17
S'<em>RBI</em>-Centre turf war: Tussle not new, Viral Acharya just flagging new ...'
p18
V29-Oct-2018
p19
tp20
a(Vhttps://economictimes.indiatimes.com/industry/banking/finance/banking/rbi-may-bar-dual-functions-of-rating-agencies/articleshow/68342935.cms
p21
S'<em>RBI</em> may bar dual functions of rating agencies'
p22
V10-Mar-2019
p23
tp24
a(Vhttps://www.thehindu.com/business/Economy/closely-monitoring-financial-markets-say-rbi-and-sebi/article25022296.ece
p25
S'Closely monitoring financial markets, say <em>RBI</em> and <em>SEBI</em>'
p26
V23-Sep-2018
p27
tp28
a(Vhttps://economictimes.indiatimes.com/industry/banking/finance/banking/reserve-bank-of-india-raises-concern-over-role-of-rating-advisers/articleshow/68457009.cms
p29
S"Reserve Bank of India raises concern over role of 'rating advisers'"
p30
V17-Mar-2019
p31
tp32
a(Vhttps://www.financialexpress.com/opinion/rbi-and-sebi-should-help-rating-agencies-make-better-evaluation-heres-what-needs-to-be-done/1378965/
p33
S'<em>RBI</em> and <em>SEBI</em> should help rating agencies make better evaluation ...'
p34
V11-Nov-2018
p35
tp36
a(Vhttps://www.moneycontrol.com/news/business/companies/rbi-may-not-extend-yes-bank-ceo-rana-kapoors-term-experts-question-boards-request-to-seek-extension-2990251.html
p37
S"<em>RBI</em> may not extend Yes Bank CEO Rana Kapoor's term; experts ..."
p38
V27-Sep-2018
p39
tp40
a(Vhttps://www.livemint.com/Money/exCidZ0oFAsQaQnTzwcPzO/Sebi-examining-RBI-norms-on-rating-resolution-plans-of-stres.html
p41
S'<em>Sebi</em> examining <em>RBI</em> norms on rating resolution plans of stressed assets'
p42
V13-Mar-2018
p43
tp44
a(Vhttps://www.livemint.com/market/stock-market-news/sebi-rbi-examining-business-models-of-rating-agencies-1558030782374.html
p45
S'<em>Sebi</em>, <em>RBI</em> examining business models of rating agencies'
p46
V16-May-2019
p47
tp48
a(Vhttps://www.freepressjournal.in/analysis/rbi-vs-government-maturity-missing-on-both-sides
p49
S'<em>RBI</em> vs Government: Maturity missing on both sides'
p50
V31-Oct-2018
p51
tp52
a(Vhttps://economictimes.indiatimes.com/news/economy/policy/rbi-government-fight-is-nothing-new-but-this-time-the-timing-is-all-wrong/articleshow/66455689.cms
p53
S'<em>RBI</em>-government fight is nothing new. But this time, the timing is all wrong'
p54
V31-Oct-2018
p55
tp56
a(Vhttps://economictimes.indiatimes.com/markets/stocks/news/kotak-mahindra-banks-preference-share-issue-not-as-per-regulations-rbi/articleshow/65403256.cms
p57
S'<em>RBI</em> rejects tool used for Kotak stake dilution'
p58
V14-Aug-2018
p59
tp60
a(Vhttps://www.moneycontrol.com/news/economy/policy/why-its-time-to-relook-the-rbi-policy-on-bank-ownership-2854751.html
p61
S"Why it's time to relook the <em>RBI</em> policy on bank ownership"
p62
V17-Aug-2018
p63
tp64
a(Vhttps://economictimes.indiatimes.com/sebi-rbi-engage-in-turf-war-over-stock-trading-of-hdfc-bank/articleshow/57484059.cms
p65
S'<em>Sebi</em>, <em>RBI</em> engage in turf war over stock trading of HDFC Bank'
p66
V05-Mar-2017
p67
tp68
a(Vhttps://www.business-standard.com/article/economy-policy/shaktikanta-das-named-rbi-governor-ahead-of-board-meeting-on-friday-118121200060_1.html
p69
S'Trusted old hand Shaktikanta Das named <em>RBI</em> governor ahead of ...'
p70
V11-Dec-2018
p71
tp72
a(Vhttps://economictimes.indiatimes.com/markets/stocks/news/shaktikanta-das-to-helm-reserve-bank/articleshow/67053123.cms
p73
S'Shaktikanta Das to helm Reserve Bank'
p74
V11-Dec-2018
p75
tp76
a(Vhttps://www.livemint.com/Industry/TB7kM1PIooMnBCapES4TjP/ICICIVideocon-loan-case-Sebi-may-seek-forensic-probe-of-ba.html
p77
S'ICICI-Videocon loan case: <em>Sebi</em> may seek forensic probe of bank ...'
p78
V21-Apr-2018
p79
tp80
a(Vhttps://www.businesstoday.in/current/economy-politics/sebi-may-seek-forensic-probe-of-icici-bank-books-disclosures/story/275380.html
p81
S'<em>Sebi</em> may seek forensic probe of ICICI Bank books, disclosures'
p82
V21-Apr-2018
p83
tp84
a(Vhttps://www.livemint.com/Industry/PCV0wIQ0LF1OvmvLwtYH1I/Videocon-loan-case-ICICI-Bank-Chanda-Kochhar-under-scanner.html
p85
S'ICICI Bank, Chanda Kochhar under US SEC scanner'
p86
V10-Jun-2018
p87
tp88
a(Vhttps://www.businesstoday.in/sectors/banks/icici-bank-ceo-chanda-kochhar-may-face-rs-25-crore-penalty-sebi-sec/story/278891.html
p89
S'ICICI Bank CEO Chanda Kochhar may face Rs 25 crore penalty if ...'
p90
V11-Jun-2018
p91
tp92
a(Vhttps://www.moneylife.in/article/rbi-governor-urjit-patel-resigns/55886.html
p93
S'<em>RBI</em> Governor Urjit Patel Resigns'
p94
V10-Dec-2018
p95
tp96
a(Vhttps://www.financialexpress.com/economy/full-coverage-urjit-patel-resignation-all-you-need-to-know-about-rbi-governors-exit/1410078/
p97
S'FULL COVERAGE | Urjit Patel Resignation: All you need to know ...'
p98
V10-Dec-2018
p99
tp100
a(Vhttps://www.livemint.com/Companies/l01jlUoYLtvMXGaq7NY7LN/Sebi-may-summon-ICICI-Bank-CEO-Chanda-Kochhar-soon.html
p101
S'<em>Sebi</em> may summon ICICI Bank CEO Chanda Kochhar soon'
p102
V09-Sep-2018
p103
tp104
a(Vhttps://www.businesstoday.in/current/economy-politics/sebi-may-summon-kochhars-soon-board-to-discuss-coordinated-efforts-with-govt-rbi/story/282180.html
p105
S'<em>SEBI</em> may summon Kochhars soon; board to discuss coordinated ...'
p106
V09-Sep-2018
p107
tp108
a(Vhttps://economictimes.indiatimes.com/blogs/et-editorials/spat-between-sebi-and-rbi-underlines-the-need-for-unified-regulation/
p109
S'Spat between <em>Sebi</em> and <em>RBI</em> underlines the need for unified regulation'
p110
V06-Mar-2017
p111
tp112
a(Vhttps://economictimes.indiatimes.com/industry/banking/finance/banking/rbis-appointments-division-okayed-rana-kapoors-extension-for-3-years/articleshow/65942446.cms
p113
S"<em>RBI's</em> appointments division okayed Rana Kapoor's extension for 3 years"
p114
V24-Sep-2018
p115
tp116
a(Vhttps://www.livemint.com/Companies/kh4lWDfw0J5lp0fbVuCnuK/Task-cut-out-forYes-Bank-as-it-scouts-for-CEO-Rana-Kapoors.html
p117
S"Task cut out for Yes Bank as it scouts for CEO Rana Kapoor's successor"
p118
V23-Sep-2018
p119
tp120
a(Vhttps://www.fortuneindia.com/enterprise/rana-kapoors-exit-what-it-means-for-banks/102478
p121
S"Rana Kapoor's exit: What it means for banks"
p122
V20-Sep-2018
p123
tp124
a(Vhttps://economictimes.indiatimes.com/industry/banking/finance/banking/oh-yes-you-lost-your-ceo-for-greater-good-why-rbi-said-no-to-a-full-term-for-rana-kapoor/articleshow/65881229.cms
p125
S'Oh Yes, you lost your CEO, for greater good: Why <em>RBI</em> said no to a full ...'
p126
V19-Sep-2018
p127
tp128
a(Vhttps://economictimes.indiatimes.com/news/economy/policy/just-as-rbi-was-getting-back-to-normal-functioning-its-hit-again-with-a-demo-redux/articleshow/66580993.cms
p129
S"Just as <em>RBI</em> was getting back to normal functioning, it's hit again with a ..."
p130
V11-Nov-2018
p131
tp132
a(Vhttps://www.moneylife.in/article/rbi-keeps-repo-rate-unchanged-at-65-percentage/55488.html
p133
S'<em>RBI</em> Keeps Repo Rate Unchanged at 6.5%'
p134
V05-Oct-2018
p135
tp136
a(Vhttps://www.moneylife.in/article/sebi-allows-exchanges-to-trade-in-stocks-and-commodities-from-october-2018/52613.html
p137
S'<em>SEBI</em> allows exchanges to trade in stocks and commodities from ...'
p138
V28-Dec-2017
p139
tp140
a(Vhttps://economictimes.indiatimes.com/markets/stocks/news/sebi-approves-stock-commodity-bourse-convergence-from-october-2018/articleshow/62280769.cms
p141
S'<em>Sebi</em> approves stock, commodity bourse convergence from October 2018'
p142
V28-Dec-2017
p143
tp144
a(Vhttps://www.thehindubusinessline.com/markets/sebi-may-put-10-crossshareholding-cap-in-mutual-funds/article10003518.ece
p145
S'<em>SEBI</em> may put 10% cross-shareholding cap in mutual funds'
p146
V27-Dec-2017
p147
tp148
a(Vhttps://www.business-standard.com/article/finance/promoter-stake-dilution-kotak-mahindra-moves-court-against-rbi-decision-118121000467_1.html
p149
S'Kotak Bank moves HC against <em>RBI</em> over promoter shareholding <em>dispute</em>'
p150
V10-Dec-2018
p151
tp152
a(Vhttps://www.moneylife.in/article/nse-co-location-scam-sebi-orders-disgorgement-of-profits-from-nse-and-salaries-of-former-mds-ravi-narain-and-chitra-ramakrishna/57040.html
p153
S'NSE Co-location Scam: <em>SEBI</em> Orders Disgorgement of Profits from ...'
p154
V30-Apr-2019
p155
tp156
a(Vhttps://economictimes.indiatimes.com/markets/stocks/news/nse-barred-from-accessing-securities-market-for-6-months/articleshow/69123095.cms
p157
S'NSE barred from accessing securities market for 6 months'
p158
V30-Apr-2019
p159
tp160
a(Vhttps://economictimes.indiatimes.com/markets/stocks/news/icici-bank-applies-to-sebi-to-settle-allegations-of-governance-lapses/articleshow/65858052.cms
p161
S'No settlement plea from ICICI Bank, says <em>Sebi</em>'
p162
V18-Sep-2018
p163
tp164
a(Vhttps://www.moneycontrol.com/news/business/companies/videocon-case-icici-bank-seeks-settlement-through-consent-says-sebi-chief-ajay-tyagi-2963241.html
p165
S'Videocon case: ICICI Bank seeks settlement through consent, says ...'
p166
V18-Sep-2018
p167
tp168
a(Vhttps://timesofindia.indiatimes.com/business/india-business/icici-bank-seeks-settlement-through-consent-on-kochhar-issue-says-sebi-chief/articleshow/65858128.cms
p169
S'ICICI Bank seeks settlement through consent on Kochhar issue, says ...'
p170
V18-Sep-2018
p171
tp172
a(Vhttps://www.business-standard.com/article/economy-policy/icici-bank-board-under-fire-for-giving-clean-chit-to-chanda-kochhar-119013100034_1.html
p173
S'ICICI Bank board under fire for giving clean chit to Chanda Kochhar'
p174
V30-Jan-2019
p175
tp176
a(Vhttps://www.thenewsminute.com/article/icici-bank-sacks-chanda-kochhar-after-srikrishna-panel-indicts-her-videocon-case-95942
p177
S'ICICI Bank sacks Chanda Kochhar after Srikrishna panel indicts her in ...'
p178
V30-Jan-2019
p179
tp180
a(Vhttps://www.ibtimes.co.in/kochhar-denies-guilt-after-icici-bank-fires-her-retrospective-effect-791042
p181
S'Kochhar denies guilt after ICICI Bank fires her with retrospective effect'
p182
V30-Jan-2019
p183
tp184
a(Vhttps://www.livemint.com/Companies/R4qe8jYdauHGuMrNXUG56K/PSU-listed-firms-may-be-first-to-separate-chairman-MD-posts.html
p185
S'PSU listed firms may be first to separate chairman, MD posts'
p186
V19-Sep-2017
p187
tp188
a(Vhttps://www.livemint.com/Money/6QQjPOdfFNzHknirMbxlGI/Sebi-RBI-step-up-NSE-highfrequency-trading-probe-top-of.html
p189
S"<em>Sebi</em>, <em>RBI</em> step up NSE 'high-frequency' trading probe, top officials ..."
p190
V28-May-2017
p191
tp192
a(Vhttps://economictimes.indiatimes.com/markets/stocks/news/sebi-favours-adjudication-proceedings-against-icici-bank-chanda-kochhar/articleshow/64734978.cms
p193
S'<em>Sebi</em> favours adjudication proceedings against ICICI Bank, Chanda ...'
p194
V25-Jun-2018
p195
tp196
a(Vhttps://www.moneylife.in/article/sebi-issues-notice-to-icici-bank-ceo-kochhar-in-videocon-case/54145.html
p197
S'<em>SEBI</em> issues notice to ICICI Bank, CEO Kochhar in Videocon case'
p198
V25-May-2018
p199
tp200
a(Vhttps://www.ndtv.com/business/videocon-case-sebi-issues-notice-to-icici-bank-managing-director-and-ceo-chanda-kochhar-1857622
p201
S'Videocon Case: <em>Sebi</em> Issues Notice To ICICI Bank MD Chanda Kochhar'
p202
V25-May-2018
p203
tp204
a(Vhttps://indianexpress.com/article/business/companies/videocon-loan-matter-sebi-notice-to-icici-bank-its-ceo-chanda-kochhar-5191561/
p205
S'Videocon loan matter: <em>Sebi</em> notice to ICICI Bank, its CEO Chanda ...'
p206
V25-May-2018
p207
tp208
a(Vhttps://www.businesstoday.in/sectors/banks/sebi-says-icici-bank-other-related-entities-have-not-filed-for-settlement/story/282600.html
p209
S'<em>SEBI</em> says ICICI Bank, other related entities have not filed for settlement'
p210
V19-Sep-2018
p211
tp212
a(Vhttps://www.business-standard.com/article/markets/sebi-tweaks-ipo-norms-intends-to-rationalise-fpi-mf-regulations-118062100678_1.html
p213
S'<em>Sebi</em> tweaks IPO norms, intends to rationalise FPI, MF regulations'
p214
V21-Jun-2018
p215
tp216
a(Vhttps://www.moneylife.in/article/nse-algo-scam-ravi-narain-resigns-from-boards-of-escorts-pi-industries-following-sebi-order/57052.html
p217
S'NSE Algo Scam: Ravi Narain Resigns From Boards of Escorts, PI ...'
p218
V02-May-2019
p219
tp220
a(Vhttps://economictimes.indiatimes.com/news/economy/finance/credit-rating-firms-came-under-criticism-from-rbi/articleshow/68312205.cms
p221
S'Credit rating firms face criticism from <em>RBI</em>'
p222
V07-Mar-2019
p223
tp224
a(Vhttps://www.bloombergquint.com/law-and-policy/bq-explains-the-points-of-friction-between-rbi-and-government-ahead-of-crucial-board-meet
p225
S'BQExplains: The Points Of Friction Between <em>RBI</em> And Government ...'
p226
V16-Nov-2018
p227
tp228
a(Vhttps://www.moneylife.in/article/rbi-board-decides-to-set-up-panel-to-review-amount-in-reserve-handing-over-balance-to-govt/55771.html
p229
S'<em>RBI</em> Board Decides to Set Up Panel to Review Amount in Reserve ...'
p230
V20-Nov-2018
p231
tp232
a(Vhttps://www.businesstoday.in/sectors/banks/axis-bank-ceo-shikha-sharma-term-rbi-step-down-december-31/story/274476.html
p233
S'Axis Bank CEO Shikha Sharma cuts short her tenure after <em>RBI</em> raises ...'
p234
V09-Apr-2018
p235
tp236
a(Vhttps://economictimes.indiatimes.com/markets/stocks/news/rbis-silence-on-icici-bank-delayed-response-in-axis-case-baffle-experts/articleshow/63696742.cms
p237
S"<em>RBI's</em> silence on ICICI Bank, delayed response in Axis case baffle ..."
p238
V10-Apr-2018
p239
tp240
a(Vhttps://economictimes.indiatimes.com/industry/banking/finance/banking/two-years-back-rbi-found-no-quid-pro-quo-in-icici-loans-to-videocon-rbi-documents/articleshow/63769113.cms
p241
S"Two years back, <em>RBI</em> found no 'quid pro quo' in ICICI Bank loans to ..."
p242
V14-Apr-2018
p243
tp244
a(Vhttps://www.businesstoday.in/sectors/banks/icici-bank-videocon-loan-rbi-docs-show-no-quid-pro-quo-chanda-kochhar/story/274900.html
p245
S"<em>RBI</em> docs from two years ago show no 'quid pro quo' in ICICI loans to ..."
p246
V15-Apr-2018
p247
tp248
a(Vhttps://economictimes.indiatimes.com/markets/stocks/news/rbi-should-revisit-its-policies-even-redefine-objectives/articleshow/66231295.cms
p249
S'<em>RBI</em> should revisit its policies, even redefine objectives'
p250
V15-Oct-2018
p251
tp252
a(Vhttps://www.business-standard.com/article/finance/icici-bank-gets-rbi-clearance-to-appoint-sandeep-bakhshi-as-its-md-and-ceo-118101600174_1.html
p253
S'ICICI Bank gets <em>RBI</em> clearance to appoint Sandeep Bakhshi as its MD ...'
p254
V15-Oct-2018
p255
tp256
a(Vhttps://economictimes.indiatimes.com/industry/banking/finance/banking/conflict-of-interest-between-sbi-sbi-capital-markets-catches-rbi-eye/articleshow/63755669.cms
p257
S"'<em>Conflict</em> of Interest' between SBI, SBI Capital Markets catches <em>RBI</em> eye"
p258
V13-Apr-2018
p259
tp260
a(Vhttps://www.business-standard.com/article/markets/jaitley-to-chair-fsdc-meeting-today-even-as-rbi-govt-lock-horns-in-public-118103000341_1.html
p261
S'Jaitley to chair FSDC meeting today even as <em>RBI</em>, govt lock horns in ...'
p262
V29-Oct-2018
p263
tp264
a(Vhttps://economictimes.indiatimes.com/markets/expert-view/govt-and-rbi-have-to-listen-to-each-other-and-respect-each-others-turf-raghuram-rajan/articleshow/66520329.cms
p265
S"Govt and <em>RBI</em> have to listen to each other and respect each other's turf ..."
p266
V06-Nov-2018
p267
tp268
a(Vhttps://economictimes.indiatimes.com/news/economy/finance/financial-supervision-board-may-turn-government-rbi-flashpoint/articleshow/66779723.cms
p269
S'Financial supervision board may turn government-<em>RBI</em> flashpoint'
p270
V23-Nov-2018
p271
tp272
a(Vhttps://economictimes.indiatimes.com/industry/banking/finance/banking/npas-rbi-blames-i-bankers-for-faulty-project/loan-appraisals/articleshow/62208291.cms
p273
S'NPAs: <em>RBI</em> blames i-bankers for faulty project/loan appraisals'
p274
V22-Dec-2017
p275
tp276
a(Vhttps://www.businesstoday.in/current/economy-politics/urjit-patel-met-pm-modi-to-sort-out-differences-between-rbi-centre-report/story/290420.html
p277
S'Urjit Patel met PM Modi to sort out differences between <em>RBI</em>, Centre ...'
p278
V13-Nov-2018
p279
tp280
a(Vhttps://economictimes.indiatimes.com/markets/stocks/news/leela-brookfield-deal-under-sebi-lens-for-rpt-violations/articleshow/69036792.cms
p281
S'Leela-Brookfield deal under <em>Sebi</em> lens for RPT violations'
p282
V25-Apr-2019
p283
tp284
a(Vhttps://economictimes.indiatimes.com/markets/stocks/news/sebi-notice-says-chanda-kochhar-violated-the-code-of-conduct/articleshow/64443965.cms
p285
S'<em>Sebi</em> notice says Chanda Kochhar violated the code of conduct'
p286
V03-Jun-2018
p287
tp288
a(Vhttps://www.businesstoday.in/current/economy-politics/icici-bank-chanda-kochhar-seek-more-time-to-respond-to-sebi-show-cause-notice/story/278732.html
p289
S"ICICI Bank, Chanda Kochhar seek more time to respond to <em>Sebi's</em> ..."
p290
V08-Jun-2018
p291
tp292
a(Vhttps://economictimes.indiatimes.com/markets/stocks/news/icici-bank-may-seek-to-settle-chanda-kochhar-case-with-sebi/articleshow/64494960.cms
p293
S'ICICI Bank may seek to settle Chanda Kochhar case with <em>Sebi</em>'
p294
V07-Jun-2018
p295
tp296
a(Vhttps://economictimes.indiatimes.com/markets/stocks/news/sebi-moots-tighter-norms-for-credit-rating-agencies/articleshow/60427764.cms
p297
S'<em>Sebi</em> moots tighter norms for credit rating agencies'
p298
V08-Sep-2017
p299
tp300
a(Vhttps://economictimes.indiatimes.com/markets/stocks/news/full-text-rbi-hikes-rates-heres-why/articleshow/65227219.cms
p301
S'<em>RBI</em> hikes rates by 25 bps. Full text of Third Bi-monthly Monetary Policy ...'
p302
V01-Aug-2018
p303
tp304
a(Vhttps://timesofindia.indiatimes.com/business/india-business/yes-bank-gets-sebis-final-nod-for-mf-biz/articleshow/64862192.cms
p305
S"Yes Bank gets <em>Sebi's</em> final nod for MF biz"
p306
V04-Jul-2018
p307
tp308
a(Vhttps://www.business-standard.com/article/finance/plug-loopholes-in-alternative-investment-funds-regulations-rbi-to-sebi-118030801418_1.html
p309
S'Plug loopholes in alternative investment funds regulations: <em>RBI</em> to <em>Sebi</em>'
p310
V08-Mar-2018
p311
tp312
a(Vhttps://www.thehindubusinessline.com/opinion/columns/narendar-pani/at-the-wrong-end-of-the-economic-stick-again/article25550410.ece
p313
S'Factors underlying the Centre-<em>RBI conflict</em>'
p314
V20-Nov-2018
p315
tp316
a(Vhttps://economictimes.indiatimes.com/markets/stocks/news/sebi-alarmed-over-top-mfs-holding-big-chunk-of-aum/articleshow/65523984.cms
p317
S'<em>Sebi</em> alarmed over top MFs holding big chunk of AUM'
p318
V23-Aug-2018
p319
tp320
a(Vhttps://www.moneycontrol.com/news/business/markets/comment-the-disruption-in-financial-markets-has-already-begun-2602991.html
p321
S'COMMENT-The disruption in financial markets has already begun'
p322
V18-Jun-2018
p323
tp324
a(Vhttps://www.business-standard.com/article/finance/sebi-exempts-bandhan-bank-from-1-year-lock-in-period-on-promoter-shares-118101300059_1.html
p325
S'<em>Sebi</em> exempts Bandhan Bank from 1-year lock-in period on promoter ...'
p326
V12-Oct-2018
p327
tp328
a(Vhttps://www.moneylife.in/article/statement-by-moneylife-on-sun-pharmas-allegations/56145.html
p329
S"Statement by Moneylife on Sun Pharma's Allegations"
p330
V18-Jan-2019
p331
tp332
a(Vhttps://economictimes.indiatimes.com/industry/banking/finance/banking/nachiket-mors-2nd-tenure-on-rbi-board-cut-short/articleshow/66022164.cms
p333
S"Nachiket Mor's 2nd tenure on <em>RBI</em> board cut short"
p334
V30-Sep-2018
p335
tp336
a(Vhttps://indianexpress.com/article/business/banking-and-finance/reserve-bank-of-india-demonetisation-urjit-patel-finance-ministry-the-disquieting-silence-of-the-rbi-4474662/
p337
S'The disquieting silence of the <em>RBI</em>'
p338
V14-Jan-2017
p339
tp340
a(Vhttps://www.thehindubusinessline.com/money-and-banking/rate-hike-was-to-maintain-4-retail-inflation-target-patel/article24575172.ece
p341
S"'Rate hike was to maintain 4% retail inflation target: Patel"
p342
V01-Aug-2018
p343
tp344
a(Vhttps://www.moneycontrol.com/news/business/economy/global-capital-markets-likely-to-remain-volatile-sebi-chairman-ajay-tyagi-3314581.html
p345
S'Global capital markets likely to remain volatile: <em>Sebi</em> Chairman Ajay ...'
p346
V20-Dec-2018
p347
tp348
a(Vhttps://www.livemint.com/Companies/iNGRiuInJWEzTIxaOeiTmN/ICICI-Bank-gets-RBI-nod-for-Sandeep-Bakshis-appointment-as.html
p349
S"ICICI Bank gets <em>RBI</em> nod for Sandeep Bakshi's appointment as COO"
p350
V01-Aug-2018
p351
tp352
a(Vhttps://www.moneycontrol.com/news/business/companies/icici-bank-cautions-regulatory-scrutiny-may-impact-reputation-financials-in-sec-filing-2794131.html
p353
S'ICICI Bank cautions regulatory scrutiny may impact reputation ...'
p354
V01-Aug-2018
p355
tp356
a(Vhttps://www.financialexpress.com/industry/banking-finance/are-indian-banks-too-big-to-fail-heres-what-rbi-is-doing-about-it-rbi-monetary-policy-august-2018-rate-hike-2nd-time-6-5/1266140/
p357
S"'Too big to fail' Indian banks: Here's what <em>RBI</em> is doing about it"
p358
V02-Aug-2018
p359
tp360
a(Vhttps://www.orfonline.org/research/rbi-versus-the-government-independence-and-accountability-in-a-democracy-46085/
p361
S'<em>RBI</em> versus the government: Independence and accountability in a ...'
p362
V07-Dec-2018
p363
tp364
a(Vhttps://www.moneylife.in/article/rbi-orders-more-banks-to-appoint-internal-ombudsman-but-is-the-concept-working/55204.html
p365
S'<em>RBI</em> Orders More Banks To Appoint Internal Ombudsman: But Is the ...'
p366
V04-Sep-2018
p367
tp368
a(Vhttps://economictimes.indiatimes.com/industry/healthcare/biotech/pharmaceuticals/whistle-blower-complains-to-sebi-against-sun-pharma-alleges-insider-trading-report/articleshow/66891084.cms
p369
S'Whistle-blower complains to <em>SEBI</em> against Sun Pharma, alleges ...'
p370
V30-Nov-2018
p371
tp372
a(Vhttps://www.moneylife.in/article/mutual-fund-saahi-hai-sebis-recent-action-against-icici-pru-amc-raises-huge-questions-about-this-claim/54581.html
p373
S"Mutual Fund Saahi Hai? <em>SEBI's</em> Recent Action against ICICI Pru AMC ..."
p374
V05-Jul-2018
p375
tp376
a(Vhttps://www.businesstoday.in/current/corporate/rssb-chief-dhillon-beneficiary-behind-corporate-veil-in-religare-fund-diversion-filmmaker-sheetal-talwar-tells-sebi/story/354115.html
p377
S'RSSB chief Dhillon beneficiary behind corporate veil in Religare fund ...'
p378
V05-Jun-2019
p379
tp380
a(Vhttps://economictimes.indiatimes.com/markets/stocks/news/securities-scanner-cas-valuers-and-css-could-come-under-sebi-ambit/articleshow/63605003.cms
p381
S'Securities scanner: CAs, valuers and CSs could come under <em>Sebi</em> ambit'
p382
V04-Apr-2018
p383
tp384
a(Vhttps://economictimes.indiatimes.com/markets/stocks/news/rbi-should-push-for-fresh-issuance-of-shares-by-banks-to-meet-licensing-guidelines/articleshow/66793043.cms
p385
S"'<em>RBI</em> should push for fresh issuance of shares by banks to meet ..."
p386
V24-Nov-2018
p387
tp388
a(Vhttps://www.moneylife.in/article/sebi-allows-opg-securities-way2wealth-and-gkn-securities-to-close-positions-in-fo-and-currency-derivatives-in-two-months/57067.html
p389
S'<em>SEBI</em> Allows OPG Securities, Way2Wealth and GKN Securities to ...'
p390
V03-May-2019
p391
tp392
a(Vhttps://www.moneycontrol.com/news/business/moneycontrol-research/rbis-bandhan-bank-diktat-heres-what-investors-need-to-know-3008291.html
p393
S"<em>RBI's</em> Bandhan Bank diktat: Here's what investors need to know"
p394
V03-Oct-2018
p395
tp396
a(Vhttps://www.businesstoday.in/current/policy/new-sebi-norms-now-nris-pios-foreign-nationals-can-transfer-equity-shares-to-immediate-relatives/story/318495.html
p397
S'New <em>Sebi</em> norms: NRIs, PIOs, foreign nationals can now transfer equity ...'
p398
V11-Feb-2019
p399
tp400
a(Vhttps://www.thehindubusinessline.com/markets/raval-to-recuse-self-from-sebi-panel-on-nse-consent-plea/article9794207.ece
p401
S'Raval to recuse self from <em>SEBI</em> panel on NSE consent plea'
p402
V30-Jul-2017
p403
tp404
a(Vhttps://economictimes.indiatimes.com/nse-case-sebi-may-recast-panel-after-two-members-raise-conflict-on-interest-issue/articleshow/59837745.cms
p405
S'NSE case: <em>Sebi</em> may recast panel after two members raise <em>conflict</em> on ...'
p406
V30-Jul-2017
p407
tp408
a(Vhttps://www.moneylife.in/article/rbi-to-set-up-task-force-on-corporate-loans-secondary-market/56780.html
p409
S"<em>RBI</em> to set up task force on corporate loans' secondary market"
p410
V04-Apr-2019
p411
tp412
a(Vhttps://economictimes.indiatimes.com/industry/services/consultancy-/-audit/auditor-resignations-likely-to-trigger-probes-by-rbi-sebi/articleshow/70050215.cms
p413
S'Auditor resignations likely to trigger probes by <em>RBI</em>, <em>Sebi</em>'
p414
V02-Jul-2019
p415
tp416
a(Vhttps://www.moneylife.in/article/pricewaterhousecoopers-banned-for-2-years-by-sebi-in-satyam-scam/52739.html
p417
S'PricewaterhouseCoopers banned for 2 years by <em>SEBI</em> in Satyam scam'
p418
V10-Jan-2018
p419
tp420
a(Vhttps://timesofindia.indiatimes.com/business/india-business/no-rbi-nominee-should-be-on-banks-boards-says-governor-urjit-patel/articleshow/64560378.cms
p421
S"No <em>RBI</em> nominee should be on banks' boards, says Governor Urjit Patel"
p422
V12-Jun-2018
p423
tp424
a(Vhttps://indianexpress.com/article/opinion/columns/demonetisation-rbi-reserved-bank-of-india-withdrawal-of-legal-tender-of-high-denomination-notes-4473140/
p425
S'Reserved Bank of India'
p426
V13-Jan-2017
p427
tp428
a(Vhttps://www.moneylife.in/article/sebi-asks-credit-rating-agencies-to-provide-liquidity-status-historical-average-transition-of-companies-being-rated/55727.html
p429
S'<em>SEBI</em> asks credit rating agencies to provide liquidity status, historical ...'
p430
V13-Nov-2018
p431
tp432
a(Vhttps://www.financialexpress.com/india-news/competition-law-regulatory-conflicts-to-ease-in-redrafting/1174899/
p433
S'Competition Law: Regulatory <em>conflicts</em> to ease in redrafting'
p434
V20-May-2018
p435
tp436
a(Vhttps://economictimes.indiatimes.com/markets/stocks/news/sebi-unveils-rules-for-re-classification-of-promoter-as-public-investor/articleshow/66755412.cms
p437
S'<em>Sebi</em> unveils rules for reclassification of promoter as public investor'
p438
V22-Nov-2018
p439
tp440
a(Vhttps://www.business-standard.com/article/markets/sebi-frames-new-rules-for-re-classification-of-promoter-as-public-investor-118112201278_1.html
p441
S'<em>Sebi</em> frames new rules for re-classification of promoter as public investor'
p442
V22-Nov-2018
p443
tp444
a(Vhttps://economictimes.indiatimes.com/markets/stocks/news/sebi-issues-fresh-consultation-papers-on-investment-advisers/articleshow/62340216.cms
p445
S'<em>Sebi</em> issues fresh consultation papers on Investment Advisers'
p446
V02-Jan-2018
p447
tp448
a(Vhttps://economictimes.indiatimes.com/news/economy/policy/rbi-outlines-action-plan-to-implement-ordinance-on-npas/articleshow/58792456.cms
p449
S'<em>RBI</em> outlines action plan to implement ordinance on NPAs'
p450
V22-May-2017
p451
tp452
a(Vhttps://www.moneycontrol.com/news/business/sebi-directs-hdfc-amc-to-cancel-pre-ipo-share-sale-return-investors-capital-2658161.html
p453
S'<em>SEBI</em> directs HDFC AMC to cancel pre-IPO share sale, return investors ...'
p454
V02-Jul-2018
p455
tp456
a(Vhttps://economictimes.indiatimes.com/markets/ipos/fpos/sebi-directs-hdfc-amc-to-call-off-pre-ipo-placement/articleshow/64820900.cms
p457
S'<em>Sebi</em> directs HDFC AMC to call off pre-IPO placement'
p458
V01-Jul-2018
p459
tp460
a(Vhttps://www.moneylife.in/article/kotak-lawsuit-will-it-finally-make-rbi-accountable/56171.html
p461
S'Kotak Lawsuit: Will It Finally Make <em>RBI</em> Accountable?'
p462
V23-Jan-2019
p463
tp464
a(Vhttps://www.moneylife.in/article/nse-algo-scam-cbi-steps-in-where-sebi-was-pussyfooting/54193.html
p465
S'NSE Algo Scam: CBI Steps in Where <em>SEBI</em> Was Pussyfooting'
p466
V31-May-2018
p467
tp468
a(Vhttps://barandbench.com/sebi-report-on-settlement-mechanisms-public-comments/
p469
S'<em>SEBI</em> publishes report on settlement mechanisms, seeks public ...'
p470
V14-Aug-2018
p471
tp472
a(Vhttp://www.businessworld.in/article/Deputy-Governor-of-RBI-Viral-Acharya-Things-You-Should-Know/24-06-2019-172306
p473
S'Deputy Governor of <em>RBI</em>, Viral Acharya: Things You Should Know'
p474
V24-Jun-2019
p475
tp476
a(Vhttps://economictimes.indiatimes.com/markets/stocks/news/sebi-examines-default-probability-framework-to-keep-rating-companies-on-toes/articleshow/69682147.cms
p477
S"<em>Sebi</em> examines 'default probability' framework to keep rating ..."
p478
V06-Jun-2019
p479
tp480
a(Vhttps://economictimes.indiatimes.com/markets/stocks/news/infosys-settlement-with-sebi-vindicates-murthys-position/articleshow/68263690.cms
p481
S"Infosys' settlement with <em>Sebi</em> vindicates Murthy's position"
p482
V04-Mar-2019
p483
tp484
a(Vhttps://www.businesstoday.in/current/corporate/top-corporates-prepare-to-split-cmd-post-smaller-firms-extend-tenures-beyond-sebi-deadline/story/280985.html
p485
S'Top corporates prepare to split CMD post; smaller firms extend tenures ...'
p486
V05-Aug-2018
p487
tp488
a(Vhttps://www.thehindu.com/opinion/editorial/interim-bailout/article26314663.ece
p489
S'Interim bailout: <em>RBI</em> surplus to govt'
p490
V19-Feb-2019
p491
tp492
a(Vhttps://www.thehindu.com/business/sat-settles-sebi-broker-dispute-over-interest-calculation/article26689298.ece
p493
S'SAT settles <em>SEBI</em>-broker <em>dispute</em> over interest calculation'
p494
V30-Mar-2019
p495
tp496
a(Vhttps://www.moneylife.in/article/nse-co-location-scam-cbi-may-expand-scope-of-probe-beyond-fir/57239.html
p497
S'NSE Co-location Scam: CBI May Expand Scope of Probe beyond FIR'
p498
V22-May-2019
p499
tp500
a(Vhttps://www.livemint.com/Companies/WNO6IZ0GiPcfp0AmirgCVK/Videocon-loan-case-Embattled-ICICI-board-plans-investor-out.html
p501
S'Videocon loan case: Embattled ICICI board plans investor outreach'
p502
V12-Apr-2018
p503
tp504
a(Vhttps://www.moneylife.in/article/nse-algo-scam-sebi-says-ajay-shah-suprabhat-lala-and-their-wives-commercially-exploited-confidential-data/57063.html
p505
S'NSE Algo Scam: <em>SEBI</em> Says Ajay Shah, Suprabhat Lala & Their Wives ...'
p506
V03-May-2019
p507
tp508
a(Vhttps://economictimes.indiatimes.com/markets/stocks/news/sebi-examining-whistleblower-complaint-against-sun-pharma/articleshow/67070064.cms
p509
S'<em>Sebi</em> examining whistleblower complaint against Sun Pharma'
p510
V12-Dec-2018
p511
tp512
a(Vhttps://www.moneylife.in/article/sebi-committee-recommends-separation-of-roles-for-chairman-and-md-and-ceo-50-percentage-independent-directors-on-board/51815.html
p513
S'<em>SEBI</em> Committee recommends separation of roles for Chairman and ...'
p514
V05-Oct-2017
p515
tp516
a(Vhttps://economictimes.indiatimes.com/markets/stocks/news/sebi-proposes-easier-rules-to-reclassify-promoters-as-public-shareholders/articleshow/65122189.cms
p517
S'<em>Sebi</em> proposes easier rules to reclassify promoters as public ...'
p518
V24-Jul-2018
p519
tp520
a(Vhttps://www.moneycontrol.com/news/business/markets/sebi-moots-on-tap-bond-market-for-direct-sale-to-investors-using-stock-exchanges-2887951.html
p521
S"<em>SEBI</em> moots 'on tap' bond market for direct sale to investors using stock ..."
p522
V27-Aug-2018
p523
tp524
a(Vhttps://economictimes.indiatimes.com/news/politics-and-nation/former-sebi-chief-m-damodaran-squarely-blames-delhi-politicians-for-psb-mess/articleshow/63817796.cms
p525
S'Former <em>Sebi</em> chief M Damodaran squarely blames Delhi politicians for ...'
p526
V18-Apr-2018
p527
tp528
a(Vhttps://www.moneycontrol.com/news/business/mca-moves-nclt-for-reopening-of-ilfs-groups-books-3315681.html
p529
S"MCA moves NCLT for reopening of IL&FS Group's books"
p530
V21-Dec-2018
p531
tp532
a(Vhttps://www.businesstoday.in/sectors/banks/chanda-kochhar-seeks-more-time-to-appear-before-sebi-for-personal-hearing/story/285210.html
p533
S'Chanda Kochhar seeks more time to appear before <em>Sebi</em> for personal ...'
p534
V15-Oct-2018
p535
tp536
a(Vhttps://www.moneycontrol.com/news/business/wrap-is-credibility-of-rating-agencies-under-a-cloud-4053041.html
p537
S'WRAP: Is credibility of rating agencies under a cloud?'
p538
V31-May-2019
p539
tp540
a(Vhttps://www.moneylife.in/article/sebi-orders-inquiry-into-alleged-leak-of-asm-list/54258.html
p541
S'<em>SEBI</em> orders inquiry into alleged leak of ASM list'
p542
V06-Jun-2018
p543
tp544
a(Vhttps://economictimes.indiatimes.com/markets/stocks/news/sbi-lic-fail-to-get-more-time-to-cut-uti-mf-stake/articleshow/68263477.cms
p545
S'SBI, LIC fail to get more time to cut UTI MF stake'
p546
V04-Mar-2019
p547
tp548
a(Vhttps://www.business-standard.com/article/news-ani/sebi-allows-listing-of-security-receipts-by-arc-117122801099_1.html
p549
S'<em>SEBI</em> allows listing of security receipts by ARC'
p550
V28-Dec-2017
p551
tp552
a(Vhttps://www.thehindubusinessline.com/news/national/centre-does-not-know-how-to-manage-institutions-like-rbi-cbi-wb-finance-minister/article25579263.ece
p553
S'Centre does not know how to manage institutions like <em>RBI</em>, CBI: WB ...'
p554
V23-Nov-2018
p555
tp556
a(Vhttps://www.moneylife.in/article/nclt-and-sebi-at-loggerheads-over-attachment-of-ponzi-debtors-properties/57220.html
p557
S"NCLT and <em>SEBI</em> at Loggerheads over Attachment of Ponzi Debtor's ..."
p558
V20-May-2019
p559
tp560
a(Vhttps://www.livemint.com/Opinion/5943fzpjbNW0qwtUr32sdK/Opinion--A-muchneeded-revamp-for-rating-agencies.html
p561
S'Opinion | A much-needed revamp for rating agencies'
p562
V12-Nov-2018
p563
tp564
a(Vhttps://indianexpress.com/article/business/banking-and-finance/reserve-bank-rbi-finance-ministry-arun-jaitley-revaluation-gain-not-to-be-considered-5456523/
p565
S'<em>RBI</em> reserves: Revaluation gain not to be considered'
p566
V20-Nov-2018
p567
tp568
a(Vhttps://www.business-standard.com/article/news-ians/nclt-asks-sebi-to-de-attach-corporate-debtor-s-properties-119051601240_1.html
p569
S"NCLT asks <em>SEBI</em> to de-attach corporate debtor's properties"
p570
V16-May-2019
p571
tp572
a(Vhttps://www.thehindubusinessline.com/opinion/editorial/the-rbi-has-done-well-to-stand-firm-on-data-localisation/article25240890.ece
p573
S'The right move'
p574
V16-Oct-2018
p575
tp576
a(Vhttps://www.business-standard.com/article/markets/sebi-directs-icici-prudential-mf-to-refund-rs-2-4-billion-to-five-schemes-118070300069_1.html
p577
S'<em>Sebi</em> directs ICICI Prudential MF to refund Rs 2.4 billion to five schemes'
p578
V02-Jul-2018
p579
tp580
a(Vhttps://www.moneylife.in/article/algo-scam-sebis-show-cause-notice-to-nse-14-an-escape-route/50679.html
p581
S"Algo Scam: <em>SEBI's</em> Show-cause Notice to NSE 14 an Escape Route?"
p582
V05-Jun-2017
p583
tp584
a(Vhttps://timesofindia.indiatimes.com/business/india-business/sebi-fines-geodesics-chairman-2-directors-rs-14-lakh-for-disclosure-lapses/articleshow/66449576.cms
p585
S"<em>Sebi</em> fines Geodesic's chairman, 2 directors Rs 14 lakh for disclosure ..."
p586
V31-Oct-2018
p587
tp588
a(Vhttps://economictimes.indiatimes.com/industry/services/consultancy-/-audit/big-4-audit-companies-may-suffer-revenue-hit-due-to-conflict-of-interest-norms/articleshow/66613525.cms
p589
S'Big 4 audit companies may suffer revenue hit due to <em>conflict</em> of interest ...'
p590
V13-Nov-2018
p591
tp592
a(Vhttps://economictimes.indiatimes.com/markets/stocks/news/sebi-norms-291-listed-firms-need-to-split-cmd-post/articleshow/65090766.cms
p593
S'<em>Sebi</em> norms: 291 listed firms need to split CMD post'
p594
V22-Jul-2018
p595
tp596
a(Vhttps://economictimes.indiatimes.com/mf/mf-news/sebi-may-segregate-investment-advisory-distribution-services/articleshow/59281936.cms
p597
S'<em>Sebi</em> may segregate investment advisory, distribution services'
p598
V22-Jun-2017
p599
tp600
a(Vhttps://economictimes.indiatimes.com/industry/services/consultancy-/-audit/auditors-one-of-the-weakest-links-in-corp-governance-uday-kotak/articleshow/66870654.cms
p601
S'Auditors one of the weakest links in corp governance: Uday Kotak'
p602
V29-Nov-2018
p603
tp604
a(Vhttps://economictimes.indiatimes.com/markets/expert-view/nehru-indira-pc-all-had-issues-with-rbi-governors-says-jaitley/articleshow/67082831.cms
p605
S'Nehru, Indira, PC all had issues with <em>RBI</em> governors, says Jaitley'
p606
V13-Dec-2018
p607
tp608
a(Vhttps://economictimes.indiatimes.com/markets/bonds/sebi-plans-on-tap-bond-market/articleshow/65556332.cms
p609
S"<em>Sebi</em> plans 'on tap' bond market"
p610
V26-Aug-2018
p611
tp612
a(Vhttps://www.financialexpress.com/opinion/npa-crisis-given-rating-agencies-track-record-odd-that-rbi-looks-to-add-to-their-credibility/684452/
p613
S'NPA crisis: Given rating agencies track record, odd that <em>RBI</em> looks to ...'
p614
V24-May-2017
p615
tp616
a(Vhttps://www.livemint.com/Industry/TvzAVu4WhQlb4aJPFlS45H/P2P-lenders-seek-clarity-from-RBI-on-appointment-of-trustee.html
p617
S'P2P lenders seek clarity from <em>RBI</em> on appointment of trustee'
p618
V15-Oct-2017
p619
tp620
a(Vhttps://economictimes.indiatimes.com/industry/banking/finance/banking/icici-videocon-loan-case-is-a-clear-case-of-conflict-chanda-kochhar-should-step-aside-m-damodaran/videoshow/63712765.cms
p621
S'ICICI-Videocon loan case is a clear case of <em>conflict</em>, Chanda kochhar ...'
p622
V11-Apr-2018
p623
tp624
a(Vhttps://economictimes.indiatimes.com/markets/stocks/news/sebi-revises-norms-for-recovery-of-investors-money/articleshow/66122646.cms
p625
S"<em>Sebi</em> revises norms for recovery of investors' money"
p626
V08-Oct-2018
p627
tp628
a(Vhttps://www.business-standard.com/article/finance/was-not-aware-of-videocon-s-deals-with-husband-says-chanda-kochhar-118090600044_1.html
p629
S"Was not aware of Videocon's deals with husband, says Chanda Kochhar"
p630
V05-Sep-2018
p631
tp632
a(Vhttps://economictimes.indiatimes.com/markets/stocks/news/new-data-privacy-rules-for-fpis-soon/articleshow/67429990.cms
p633
S'New data privacy rules for FPIs soon'
p634
V07-Jan-2019
p635
tp636
a(Vhttps://economictimes.indiatimes.com/industry/banking/finance/banking/rbi-regulations-on-auditors-put-banks-in-a-spot/articleshow/64876083.cms
p637
S'<em>RBI</em> regulations on auditors put banks in a spot'
p638
V05-Jul-2018
p639
tp640
a(Vhttps://www.moneylife.in/article/the-buck-really-stops-at-sebi-and-not-the-nse/51069.html
p641
S'The Buck Really Stops at <em>SEBI</em> and Not the NSE'
p642
V16-Jul-2017
p643
tp644
a(Vhttps://www.moneylife.in/article/is-sebi-burying-the-nse-algo-scam-failing-to-go-deep/55038.html
p645
S'Is <em>SEBI</em> Burying the NSE Algo Scam; Failing To Go Deep?'
p646
V16-Aug-2018
p647
tp648
a(Vhttps://economictimes.indiatimes.com/markets/stocks/news/sebi-says-looking-into-icici-bank-videocon-loan-issue/articleshow/63546591.cms
p649
S"ICICI Bank's Videocon loan: <em>Sebi</em> probing possible disclosure ..."
p650
V30-Mar-2018
p651
tp652
a(Vhttps://economictimes.indiatimes.com/markets/stocks/news/rbi-lays-down-norms-for-ccps/articleshow/66227917.cms
p653
S'<em>RBI</em> lays down norms for CCPs'
p654
V15-Oct-2018
p655
tp656
a(Vhttps://economictimes.indiatimes.com/industry/banking/finance/banking/rbi-vs-government-battle-over-reserves-central-bank-should-hold/articleshow/66613551.cms
p657
S'<em>RBI</em> vs Government: Battle over reserves central bank should hold'
p658
V13-Nov-2018
p659
tp660
a(Vhttps://www.business-standard.com/article/economy-policy/conflicting-views-between-govt-and-rbi-led-to-withdraw-of-frdi-bill-118080200031_1.html
p661
S'<em>Conflicting</em> views between govt and <em>RBI</em> led to withdraw of FRDI Bill'
p662
V01-Aug-2018
p663
tp664
a(Vhttps://www.thehindubusinessline.com/economy/policy/cabinets-capital-booster-to-nabard/article9596517.ece
p665
S"Cabinet's capital booster to Nabard"
p666
V22-Mar-2017
p667
tp668
a(Vhttps://timesofindia.indiatimes.com/business/india-business/icra-sends-md-on-leave-till-probe-into-ilfs-gets-over/articleshow/70032465.cms
p669
S'ICRA sends MD on leave till probe into IL&FS gets over'
p670
V01-Jul-2019
p671
tp672
a(Vhttps://www.thehindubusinessline.com/economy/budget/live-coverage-of-union-budget-2019/article28284367.ece
p673
S'Budget 2019 Live: Petrol, diesel, gold gets costlier; EV components to ...'
p674
V6 hours ago
p675
tp676
a(Vhttp://www.businessworld.in/article/What-India-Expects-FM-Nirmala-Sitharaman-To-Do/01-07-2019-172601
p677
S'What India Expects FM Nirmala Sitharaman To Do'
p678
V01-Jul-2019
p679
tp680
a(Vhttps://www.business-standard.com/article/current-affairs/top-events-today-new-train-timings-gst-anniversary-rtgs-charges-more-119070100085_1.html
p681
S'Top events today: New train timings, GST anniversary, RTGS charges ...'
p682
V30-Jun-2019
p683
tp684
a(Vhttps://www.medianama.com/2019/07/223-policynext-problems-with-indias-policymaking-process-rbi-vs-trai/
p685
S"#PolicyNext: Problems with India's policymaking process; <em>RBI</em> vs TRAI"
p686
V12 minutes ago
p687
tp688
a(Vhttps://cryptocoinstribune.com/paradigm-asset-management-co-has-boosted-icici-bk-ltd-ibn-stake-perceptron-has-0-53-sentiment/
p689
S'Paradigm Asset Management Co Has Boosted Icici Bk LTD (IBN ...'
p690
V14 hours ago
p691
tp692
a.