(dp0
S'content'
p1
Vhit out at the on Monday for "causing tensions" after said his government was not seeking regime change and that he would welcome talks with\u000a\u000aThe was "hurting the Iranian people and causing tension in the region," Iranian wrote on his account.\u000a\u000a"Actions -- not words -- will show whether or not that's @realDonaldTrump's intent," Zarif added, referencing the US president's handle.\u000a\u000aZarif also denied was seeking nuclear weapons, after Trump said during a visit to that "we're not looking for regime change (in Iran)... we're looking for no nuclear weapons".\u000a\u000aIran's Ayatollah "long ago said we're not seeking nuclear weapons -- by issuing a fatwa (edict) banning them," the tweeted.\u000a\u000aKhamenei is said to have issued a fatwa against nuclear weapons in 2003 and has reiterated it several times since.\u000a\u000ais locked in a tense standoff with the which has beefed up its military presence in the in response to alleged threats from the Islamic republic.\u000a\u000aOn Saturday, Zarif called a deployment of extra US troops to the region "very dangerous and a threat to international peace and security." It follows a US decision earlier this month to send an and bombers in a show of force against what Washington's leaders said they believed was an imminent Iranian plan to attack US assets.\u000a\u000asays the latest reinforcements are in response to a "campaign" of recent attacks including a rocket launched into the Green Zone in Baghdad, that damaged four tankers near the entrance to the Gulf, and drone strikes by Yemeni rebels on a key Saudi\u000a\u000aIran has denied any involvement in the attacks.
p2
sS'meta_description'
p3
S'Read more about Iran slams US after Trump nuclear weapons comment on Business Standard. Iran hit out at the United States on Monday for "causing tensions" after President Donald Trump said his government was not seeking regime change and that he would welcome talks with Tehran.The Trump administration was "hurting the Iranian people'
p4
sS'datetime'
p5
V14 hours ago
p6
sS'link'
p7
Vhttps://www.business-standard.com/article/pti-stories/iran-slams-us-after-trump-nuclear-weapons-comment-119052800075_1.html
p8
sS'title'
p9
VIran slams US after Trump nuclear weapons comment
p10
s.