(dp0
S'content'
p1
VIt also maintains the option for the U.S. to use nuclear weapons in a first strike, while not clarifying the exact conditions under which the president might do so. The Cold War-era policy was aimed at deterring Moscow and other adversaries and reassuring allies in Europe and Asia that the U.S. will come to their defense.
p2
sS'meta_description'
p3
S'A Trump administration review will call for developing new types of nuclear weapons and recommend the most sweeping changes in U.S. nuclear strategy since the end of the Cold War.'
p4
sS'datetime'
p5
V02-Feb-2018
p6
sS'link'
p7
Vhttps://www.latimes.com/nation/la-na-pol-nuclear-trump-20180202-story.html
p8
sS'title'
p9
VTrump strategy review calls for building smaller nuclear weapons and adding scenarios for their use
p10
s.