(dp0
S'content'
p1
V
p2
sS'meta_description'
p3
S'CTVNews.ca spoke with several experts to pose the big question: What if everything went wrong, and North Korea launched a nuclear missile strike against North America?'
p4
sS'datetime'
p5
V19-Sep-2017
p6
sS'link'
p7
Vhttps://www.ctvnews.ca/features/what-if-is-canada-ready-for-a-nuclear-strike-from-north-korea-1.3589303
p8
sS'title'
p9
VWhat if: Is Canada ready for a nuclear strike from North Korea?
p10
s.