(dp0
S'content'
p1
V
p2
sS'meta_description'
p3
S'"I have best relationships with both governors though I may not have agreed on many issues."'
p4
sS'datetime'
p5
V13-Dec-2018
p6
sS'link'
p7
Vhttps://economictimes.indiatimes.com/markets/expert-view/nehru-indira-pc-all-had-issues-with-rbi-governors-says-jaitley/articleshow/67082831.cms
p8
sS'title'
p9
VNehru, Indira, PC all had issues with RBI governors, says Jaitley
p10
s.