(dp0
S'content'
p1
VWhen Shaktikanta Das retired as secretary, Department of Economic Affairs, in May 2017, he got a Rs 1 note from the government with his signature on it as a farewell gift. Das, who was appointed 25th governor of the Reserve Bank of India (RBI) on Tuesday, will now have his signature on all the banknotes that are printed during his three-year tenure.\u000a\u000aAs early as Wednesday, Das is expected to move to the Mint Road corner room, vacated by Urjit Patel after his sudden exit as RBI governor. While there\u2019s been much speculation on whether the RBI board meeting scheduled for December ...
p2
sS'meta_description'
p3
S'Read more about Trusted old hand Shaktikanta Das named RBI governor ahead of board meeting on Business Standard. Crucial board meeting to take place as scheduled for December 18'
p4
sS'datetime'
p5
V11-Dec-2018
p6
sS'link'
p7
Vhttps://www.business-standard.com/article/economy-policy/shaktikanta-das-named-rbi-governor-ahead-of-board-meeting-on-friday-118121200060_1.html
p8
sS'title'
p9
VTrusted old hand Shaktikanta Das named RBI governor ahead of board meeting
p10
s.