(dp0
S'content'
p1
V
p2
sS'meta_description'
p3
VHigh volatility in crude oil prices, turbulence in global financial markets, hardening of inflation expectations, and inputs pressures faced by corporations domestically, prompted the Reserve Bank o
p4
sS'datetime'
p5
V01-Aug-2018
p6
sS'link'
p7
Vhttps://www.thehindubusinessline.com/money-and-banking/rate-hike-was-to-maintain-4-retail-inflation-target-patel/article24575172.ece
p8
sS'title'
p9
V\u2018Rate hike was to maintain 4% retail inflation target: Patel
p10
s.