(dp0
S'content'
p1
V
p2
sS'meta_description'
p3
VRBI\u2019s stake in Nabard to be transferred to Centre
p4
sS'datetime'
p5
V22-Mar-2017
p6
sS'link'
p7
Vhttps://www.thehindubusinessline.com/economy/policy/cabinets-capital-booster-to-nabard/article9596517.ece
p8
sS'title'
p9
VCabinet\u2019s capital booster to Nabard
p10
s.