(dp0
S'content'
p1
VICICI Bank said the RBI has approved the appointment of Sandeep Bakhshi as the chief operating officer with effect from 31 July 2018 for three years
p2
sS'meta_description'
p3
S'ICICI Bank said the RBI has approved the appointment of Sandeep Bakhshi as the chief operating officer with effect from 31 July 2018 for three years'
p4
sS'datetime'
p5
V01-Aug-2018
p6
sS'link'
p7
Vhttps://www.livemint.com/Companies/iNGRiuInJWEzTIxaOeiTmN/ICICI-Bank-gets-RBI-nod-for-Sandeep-Bakshis-appointment-as.html
p8
sS'title'
p9
VICICI Bank gets RBI nod for Sandeep Bakshi\u2019s appointment as COO
p10
s.