(dp0
S'content'
p1
VICICI Bank is preparing a plan that includes more public disclosures related to conflict-of-interest allegations against CEO Chanda Kochhar in the Videocon loan case
p2
sS'meta_description'
p3
S'ICICI Bank is preparing a plan that includes more public disclosures related to conflict-of-interest allegations against CEO Chanda Kochhar in the Videocon loan case'
p4
sS'datetime'
p5
V12-Apr-2018
p6
sS'link'
p7
Vhttps://www.livemint.com/Companies/WNO6IZ0GiPcfp0AmirgCVK/Videocon-loan-case-Embattled-ICICI-board-plans-investor-out.html
p8
sS'title'
p9
VVideocon loan case: Embattled ICICI board plans investor outreach
p10
s.