(dp0
S'content'
p1
VMumbai: Markets regulator Sebi Tuesday said that the ICICI Bank has replied to its show cause notice with respect to a probe into alleged regulatory lapses involving its CEO Chanda Kochhar , her husband and his business dealings.Sebi Chairman Ajay Tyagi also said that he has no information about any settlement application filed by the bank. Later, a Sebi member clarified that the bank has not filed any formal application.In a filing, ICICI Bank informed the stock exchanges that it has submitted its response to Sebi's show cause notice but has not filed any application for settlement.ICICI Bank and the business dealings of the Kochhar family has come under the regulatory lens of Sebi and other agencies.Earlier, the Securities and Exchange Board of India (Sebi) issued show cause notices to ICICI Bank, Kochhar and others after its preliminary examination favoured initiating adjudication proceedings against them for alleged violation of listing disclosure norms regarding 'conflict of interest' in business dealings of her husband with Videocon Group.The bank and Kochhar have been maintaining there has been no regulatory violation on their part and that she was not aware of specific business dealings of her husband.As per Sebi's preliminary probe, Chanda Kochhar's husband Deepak Kochhar has had many business dealings with Videocon Group over the last several years.Besides, Deepak Kochhar and Videocon chief Venugopal Dhoot were co-founders and promoters of NuPower, besides other associations.The cases under scanner include the significant loan exposure of the bank to Videocon way back in 2012 and the alleged involvement of Kochhar's family members in the restructuring of that loan. Kochhar and her family members are facing allegations of quid pro quo and conflict of interest with respect to a loan extended to certain entities.
p2
sS'meta_description'
p3
S'ICICI Bank and the business dealings of the Kochhar family has come under the regulatory lens of Sebi and other agencies.'
p4
sS'datetime'
p5
V18-Sep-2018
p6
sS'link'
p7
Vhttps://economictimes.indiatimes.com/markets/stocks/news/icici-bank-applies-to-sebi-to-settle-allegations-of-governance-lapses/articleshow/65858052.cms
p8
sS'title'
p9
VNo settlement plea from ICICI Bank, says Sebi
p10
s.