(dp0
S'content'
p1
VICICI Bank\u2019s Managing Director and Chief Executive Officer Chanda Kochhar, facing allegations of conflict of interest and non-adherence to the code of conduct, has denied the charges levelled against her by markets regulator Securities and Exchange Board of India (Sebi).\u000a\u000aIn her reply to a show-cause notice issued by Sebi, Chanda Kochhar said she was not aware of the business dealings between husband Deepak Kochhar, promoter of NuPower Renewables, and Videocon group promoter Venugopal Dhoot. Sources said Chanda gave a 30-page reply to Sebi in which she cited several points ...
p2
sS'meta_description'
p3
S"Read more about Was not aware of Videocon's deals with husband, says Chanda Kochhar on Business Standard. Kochhar has also apprised Sebi of the current status of outstanding loans to the Videocon group"
p4
sS'datetime'
p5
V05-Sep-2018
p6
sS'link'
p7
Vhttps://www.business-standard.com/article/finance/was-not-aware-of-videocon-s-deals-with-husband-says-chanda-kochhar-118090600044_1.html
p8
sS'title'
p9
VWas not aware of Videocon's deals with husband, says Chanda Kochhar
p10
s.