(dp0
S'content'
p1
VOn 4 January 2019, the World News Daily Report (WNDR) published a recycled version of an earlier article reporting that a Chinese lunar rover had found no evidence of American moon landings. The new version contained contemporaneous references to the Chinese Chang\u2019e-4 spacecraft\u2019s making the first ever soft landing on the far side of the moon:\u000a\u000aTop officials of the Chinese Space Program have come out this week and expressed their skepticism that the American Moon landings ever happened, reports the Beijing Daily Express.\u000a\u000aMore than 2,000 high-ranking officials of the Chinese Communist Party have signed a petition this week asking explanations from the American government concerning the American Moon landings after doubts arose that the Apollo Moon landings ever happened.\u000a\u000aThese allegations have come up after recent analysis of pictures taken from the Chinese Chang\u2019e-4 probe allegedly found no traces of the American Moon landings existing on the Moon.\u000a\u000aSeveral high-ranking members of the Chinese Communist Party even stated publicly that these latest findings proved without a doubt that the Moon landings were an \u201celaborately orchestrated hoax to fool the world about America\u2019s space program capabilities\u201d.
p2
sS'meta_description'
p3
S'"These recent discoveries could strangely give credence to conspiracy theorists who have claimed for decades that America had never gone to the moon."'
p4
sS'datetime'
p5
V06-Jan-2019
p6
sS'link'
p7
Vhttps://www.snopes.com/fact-check/chinese-lunar-moon-landings/
p8
sS'title'
p9
VFACT CHECK: Did a Chinese Lunar Rover Find No Evidence of American Moon Landings?
p10
s.