(dp0
S'content'
p1
VCongress leader Navjot Singh Sidhu today said Prime Minister Narendra Modi came as "Ganga's son" in 2014 but will go as an "agent in Rafale" after the ongoing elections.\u000a\u000a"I want to ask Narendra Modi whether he took brokerage in Rafale deal or not. He can debate with me anywhere in the country. Rahul ji is a big thing. He is a cannon and I am AK-47," Sidhu said while addressing an election rally here.\u000a\u000a"I challenge Narendra Modi to debate on ''Na khaunga na khane dunga'' (neither I will do corruption nor will let anyone commit it). If I lose, I will quit politics forever. I want to say that Narendra Modi came in 2014 as the son of Ganga and he will go in 2019 as an agent in Rafale," he added.\u000a\u000aHimachal Pradesh, where four Lok Sabha seats are at stake will go to polls on May 19. The counting of votes will take place on May 23.
p2
sS'meta_description'
p3
S'Congress leader Navjot Singh Sidhu today said Prime Minister Narendra Modi came as "Ganga\'s son" in 2014 but will go as an "agent in Rafale" after the ongoing elections.'
p4
sS'datetime'
p5
V15-May-2019
p6
sS'link'
p7
Vhttps://www.ndtv.com/india-news/general-elections-2019-rahul-gandhi-is-a-cannon-and-i-am-ak-47-says-navjot-singh-sidhu-2038304
p8
sS'title'
p9
VLok Sabha elections 2019: "Rahul Gandhi Is A Cannon And I Am AK-47", Says Navjot Singh Sidhu
p10
s.