(dp0
S'content'
p1
VThe French authorities waived taxes amounting to over Rs 1,000 crore (Euro 143.7 million) for a French-registered company of the group within six months of the announcement by India to buy 36 Rafale jets in 2015, French newspaper Le Monde said.\u000a\u000aIt claimed that \u201cbetween February and October 2015, while the French were negotiating the Rafale contract with India, got a of Euro 143.7 million from the French state\u201d.\u000a\u000aWhen contacted, a spokesperson denied any favouritism by and said Reliance FLAG Atlantic SAS, a subsidiary, owned a terrestrial cable network and other telecom infrastructure in\u000a\u000a\u201cDuring the period under consideration by the French tax authorities \u2014 2008-2012 \u2014 i.e. nearly 10 years ago, Flag France had an operating loss of Rs 20 crore (Euro 2.7 million). The French tax authorities had raised a tax demand of over Rs 1,100 crore for the same period. According to the French tax settlement process and as per law, a mutual settlement agreement was signed to pay Rs 56 crore as a final settlement,\u201d the spokesperson said, adding that the tax demand was completely illegal.\u000a\u000aThe company said the settlement was done much before the Indian government decided to purchase Rafale jets.\u000a\u000aIn a statement, the Indian defence ministry said: \u201cAny connections drawn between the tax issue and the is totally inaccurate, tendentious, and a mischievous attempt to disinform.\u201d Neither the period of the tax concession nor the subject matter of the concession relates even remotely to the concluded during the tenure of the present government, it said.\u000a\u000aReacting to the controversy, the French government said a global settlement was reached between the French tax authorities and Reliance FLAG, in a tax dispute pertaining to the period 2008-2012. \u201cThis settlement was conducted in full adherence with the legislative and regulatory framework governing this common practice of the tax administration. It was not subject to any political interference,\u201d French Ambassador to India Alexandre Zeigler tweeted.\u000a\u000aThe Le Monde report revealed that Anil Ambani\u2019s French telecom company was under scrutiny. \u201cThe company was investigated by the French tax authorities and was found liable to pay Euro 60 million in taxes for the period 2007 to 2010. Reliance offered to pay Euro 7.6 million as a settlement. The French tax authorities refused. They conducted another investigation for the period 2010 to 2012 and asked for an additional Euro 91 million in taxes,\u201d tweeted Julien Bouissou, the South Asia correspondent for Le Monde, who wrote the story with Anne Michel. By the time Prime Minister Narendra Modi announced the plans to buy Rafale fighter jets from Dassault in April 2015, the Anil Ambani-firm had owed about Euro 151 million to the French government. However, six months after Modi\u2019s Rafale announcement, in October 2015, the French tax authorities accepted only Euro 7.3 million from Reliance as a settlement, instead of the much bigger sum of Euro 151 million, Le Monde reported.\u000a\u000aCongress\u2019 chief spokesperson, Randeep Surjewala, attacked the government, saying layers of corruption and money trail had been unveiled in the Rafale saga. \u201cThis is called zero-sum choices, startling tax concession and Modi \u2018kripa\u2019 (blessings),\u201d he said.\u000a\u000a \u000a\u000a
p2
sS'meta_description'
p3
S'Read more about RCom arm got huge tax waiver from France after Rafale deal: Report on Business Standard. RCom denies favouritism, says 10-yr-old case was settled under French law'
p4
sS'datetime'
p5
V13-Apr-2019
p6
sS'link'
p7
Vhttps://www.business-standard.com/article/companies/rcom-arm-got-huge-tax-waiver-from-france-after-rafale-deal-report-119041400009_1.html
p8
sS'title'
p9
VRCom arm got huge tax waiver from France after Rafale deal: Report
p10
s.