(dp0
S'content'
p1
V
p2
sS'meta_description'
p3
S''
p4
sS'datetime'
p5
V01-Nov-2018
p6
sS'link'
p7
Vhttps://www.thenewsminute.com/article/rafale-controversy-explained-10-points-90901
p8
sS'title'
p9
g4
s.