(dp0
S'content'
p1
VTargeting Prime Minister Narendra Modi over the Rafale deal, Congress president Rahul Gandhi on Tuesday claimed that former Defence Minister Manohar Parrikar had clearly stated that he has nothing to do with the \u2018new deal\u2019.\u000a\u000a\u201cFriends, the ex-Defence Minister Mr. Parrikar clearly stated that he has nothing to do with the new deal that was orchestrated by Mr. Narendra Modi to benefit Anil Ambani,\u201d he told a booth-level party workers meeting in Kochi.\u000a\u000aHis statement came hours after he met Mr. Parrikar, now Goa Chief Minister, at the State Assembly complex in Panaji.\u000a\u000aThe Congress president, however, did not clarify whether the issue was discussed during his meeting with Mr. Parrikar, who is suffering from a pancreatic ailment.\u000a\u000aMr. Gandhi made the remarks a day after he alleged that the \u201cGoa audio tapes\u201d, cited by the Congress to attack the Centre on the Rafale issue, were authentic and that Mr. Parrikar was in possession of \u201cexplosive secrets\u201d that give him power over Prime Minister Narendra Modi.\u000a\u000aReiterating his charge against Mr. Modi over the Rafale deal, Mr. Gandhi said he has taken \u20b930,000 crore of people\u2019s money and given it to his friend Anil Ambani.\u000a\u000a\u201cWhy was a plane that costs \u20b9526 crore bought at a price of \u20b91,600 crore?\u201d he asked.\u000a\u000a\u201cThe youngsters of the country, the youngsters of Kerala \u2014 they get only one answer. And the answer is that the Prime Minister of India is corrupt,\u201d he said.\u000a\u000aThe Congress has been targeting Mr. Modi on the deal alleging that the price of each aircraft was sharply hiked from around \u20b9526 crore, negotiated under the deal during UPA, to \u20b91,600 crore and that the contract would help Mr. Anil Ambani get \u20b930,000 crore benefit through offset contract.\u000a\u000aThe government has denied the charges and has accused the Congress of spreading \u2018falsehood\u2019 on the issue.\u000a\u000aMr. Gandhi questioned the removal of the CBI chief even after the Supreme Court reinstated him and alleged that the Prime Minister did it to \u201cprotect himself\u201d and \u201censure that no enquiry is carried out\u201d against him in the Rafale deal.\u000a\u000a\u201cWhy did the ex-President of France tell the press clearly that he was told by the Indian Prime Minister to give the Rafale contract to Mr. Anil Ambani? I want to ask why was a man who has no experience in building an aircraft given a contract after it was snatched away from those people [Hindustan Aeronautical Limited], who are building the aircraft for 70 years?\u201d Mr. Gandhi asked.\u000a\u000aThe Congress president said thousands of young Indians who could have got high paid jobs in HAL have now \u2018lost the opportunity\u2019.\u000a\u000aNo defence capabilities were going to be built in India due to Mr. Modi\u2019s actions, he alleged.
p2
sS'meta_description'
p3
S'Targeting Prime Minister Narendra Modi over the Rafale deal, Congress president Rahul Gandhi on Tuesday claimed that former Defence Minister Manohar Parrikar had clearly stated that he has nothing to'
p4
sS'datetime'
p5
V29-Jan-2019
p6
sS'link'
p7
Vhttps://www.thehindu.com/news/national/parrikar-has-denied-role-in-rafale-deal-rahul/article26123414.ece
p8
sS'title'
p9
VParrikar has denied role in Rafale deal: Rahul
p10
s.