(dp0
S'content'
p1
VHe said \u201cmanagement meet notes\u201d of the ICICI bank is the sixth proof, which establishes collaboration of the Modi government in Rafale deal.\u000a\u000aAs per the \u201cmanagement meet notes\u201d cited by Khera, RDL has already formed a joint venture with French jet maker Dassault for execution of offset obligations, as a part of the 36 Rafale fighter jet purchase valued at \u20b959000 crore.\u000a\u000a\u201cThe offset obligation in this contract is pegged at 50% of the total cost, that is \u20b929500 crore,\u201d reads the note mentioned by Khera.\u000a\u000a\u201cIf Dassault Aviation in its Annual Report, can reveal the price per aircraft, if Reliance Defence in its Press Release, can reveal the price per aircraft, if a retired bureaucrat who was the \u201chead of finance\u201d in the Defence Ministry, while the deal was done can reveal the benchmark price. Why can Modi not reveal the price,\u201d asked Khera.\u000a\u000aCalling it the biggest defence scandal of India, Khera also demanded a Joint Parliamentary Committee (JPC) probe into the controversial deal.\u000a\u000aThe press conference by Congress spokesperson Pawan Khera can be seen here:
p2
sS'meta_description'
p3
VCongress leader Pawan Khera said \u201cmanagement meet notes\u201d further prove that flouting all norms, Modi Govt handed over a \u20b9 29,500 crore offset contract to Anil Ambani\u2019s RDL, which had zero experience in aircraft manufacturing
p4
sS'datetime'
p5
V16-Nov-2018
p6
sS'link'
p7
Vhttps://www.nationalheraldindia.com/india/icici-bank-notes-the-sixth-proof-implicating-modi-govt-in-rafale-deal-says-congress
p8
sS'title'
p9
VICICI \u2018bank notes\u2019 the sixth proof implicating Modi govt in Rafale deal, says Congress
p10
s.