(dp0
S'content'
p1
VThe first combat would be inducted into the Indian Air Force's 'Golden Arrows' 17 Squadron which was commanded by BS Dhanoa during the war in 1999.\u000a\u000a"The first unit to receive the combat would be the 17 Squadron which was earlier located in Bhatinda in and will now be shifted to Ambala in Haryana," IAF sources told ANI.\u000a\u000aThe other squadron of the fighter would be based out of Hashimara in to tackle the front facing China, sources added. The 17 Squadron used to operate the earlier and is 'number-plated' at the moment.\u000a\u000aThe first is expected to be handed over to the in September 2019 but it would be required to undergo intensive 1,500 hours of testing to validate the Specific Enhancements on it. So, the first batch of the four planes is likely to arrive at Ambala around May 2020.\u000a\u000aIn September 2016, signed a deal with the and Dassault to acquire 36 Rafale fighter jets for over Euro 7.8 billion to arrest the fall of combat squadrons and meet urgent requirements on the eastern and western fronts.The plan to deploy one squadron of the planes at the air base in did not work out due to land acquisition issues.\u000a\u000aAmbala base has been housing aircraft squadrons mainly looking after the front but due to rapid deployment capabilities, the planes can be utilised on both the fronts in case of requirement.
p2
sS'meta_description'
p3
S'Read more about IAF chief\'s squadron to be first Rafale combat aircraft unit on Business Standard. The first Rafale combat aircraft would be inducted into the Indian Air Force\'s \'Golden Arrows\' 17 Squadron which was commanded by Air Chief Marshal BS Dhanoa during the Kargil war in 1999."The first unit to receive the Rafale combat aircraft would'
p4
sS'datetime'
p5
V29-May-2019
p6
sS'link'
p7
Vhttps://www.business-standard.com/article/news-ani/iaf-chief-s-squadron-to-be-first-rafale-combat-aircraft-unit-119052900352_1.html
p8
sS'title'
p9
VIAF chief's squadron to be first Rafale combat aircraft unit
p10
s.